target datalayout = "e-m:e-p270:32:32-p271:32:32-p272:64:64-i64:64-i128:128-f80:128-n8:16:32:64-S128"
target triple = "x86_64-pc-linux-gnu"

%struct.AVFilterContext = type { ptr, ptr, ptr, ptr, ptr, i32, ptr, ptr, i32, ptr, ptr, i32, i32, ptr, ptr, ptr, ptr, i32, ptr, i32, i32 }
%struct.HDCDContext = type { ptr, [2 x %struct.hdcd_state], i32, i32, i32, i32, i32, i32, i32, ptr, i32, i32, %struct.hdcd_detection_data }
%struct.hdcd_state = type { i64, i8, i8, i8, i32, i32, i32, i32, i32, i32, i32, i32, i32, i32, i32, [16 x i32], i32, i32, i32, i32 }
%struct.hdcd_detection_data = type { i32, i32, i32, i32, i32, i32, float, i32, i32 }

@.str.56 = private unnamed_addr constant [41 x i8] c"Channel %d: counter A: %d, B: %d, C: %d\0A\00", align 1
@.str.57 = private unnamed_addr constant [93 x i8] c"Channel %d: pe: %d, tf: %d, almost_A: %d, checkfail_B: %d, unmatched_C: %d, cdt_expired: %d\0A\00", align 1
@.str.58 = private unnamed_addr constant [26 x i8] c"Channel %d: tg %0.1f: %d\0A\00", align 1
@.str.59 = private unnamed_addr constant [30 x i8] c"Packets: type: %s, total: %d\0A\00", align 1
@pf_str = internal constant [4 x ptr] [ptr @.str.67, ptr @.str.68, ptr @.str.69, ptr @.str.70], align 16
@.str.60 = private unnamed_addr constant [110 x i8] c"HDCD detected: yes, peak_extend: %s, max_gain_adj: %0.1f dB, transient_filter: %s, detectable errors: %d%s%s\0A\00", align 1
@pe_str = internal constant [3 x ptr] [ptr @.str.71, ptr @.str.72, ptr @.str.73], align 16
@.str.61 = private unnamed_addr constant [9 x i8] c"detected\00", align 1
@.str.62 = private unnamed_addr constant [13 x i8] c"not detected\00", align 1
@.str.63 = private unnamed_addr constant [18 x i8] c" (try -v verbose)\00", align 1
@.str.64 = private unnamed_addr constant [1 x i8] zeroinitializer, align 1
@.str.65 = private unnamed_addr constant [14 x i8] c" (bad_config)\00", align 1
@.str.66 = private unnamed_addr constant [21 x i8] c"HDCD detected: no%s\0A\00", align 1

; Function Attrs: cold nounwind optsize uwtable
define internal void @uninit(ptr noundef %0) #0 {
  %2 = alloca ptr, align 8
  %3 = alloca ptr, align 8
  %4 = alloca i32, align 4
  %5 = alloca i32, align 4
  %6 = alloca ptr, align 8
  store ptr %0, ptr %2, align 8, !tbaa !4
  call void @llvm.lifetime.start.p0(i64 8, ptr %3) #7
  %7 = load ptr, ptr %2, align 8, !tbaa !4
  %8 = getelementptr inbounds nuw %struct.AVFilterContext, ptr %7, i32 0, i32 9
  %9 = load ptr, ptr %8, align 8, !tbaa !9
  store ptr %9, ptr %3, align 8, !tbaa !22
  call void @llvm.lifetime.start.p0(i64 4, ptr %4) #7
  call void @llvm.lifetime.start.p0(i64 4, ptr %5) #7
  store i32 0, ptr %4, align 4, !tbaa !32
  br label %10

10:                                               ; preds = %85, %1
  %11 = load i32, ptr %4, align 4, !tbaa !32
  %12 = icmp slt i32 %11, 2
  br i1 %12, label %13, label %88

13:                                               ; preds = %10
  call void @llvm.lifetime.start.p0(i64 8, ptr %6) #7
  %14 = load ptr, ptr %3, align 8, !tbaa !22
  %15 = getelementptr inbounds nuw %struct.HDCDContext, ptr %14, i32 0, i32 1
  %16 = load i32, ptr %4, align 4, !tbaa !32
  %17 = sext i32 %16 to i64
  %18 = getelementptr inbounds [2 x %struct.hdcd_state], ptr %15, i64 0, i64 %17
  store ptr %18, ptr %6, align 8, !tbaa !33
  %19 = load ptr, ptr %2, align 8, !tbaa !4
  %20 = load i32, ptr %4, align 4, !tbaa !32
  %21 = load ptr, ptr %6, align 8, !tbaa !33
  %22 = getelementptr inbounds nuw %struct.hdcd_state, ptr %21, i32 0, i32 7
  %23 = load i32, ptr %22, align 8, !tbaa !35
  %24 = load ptr, ptr %6, align 8, !tbaa !33
  %25 = getelementptr inbounds nuw %struct.hdcd_state, ptr %24, i32 0, i32 9
  %26 = load i32, ptr %25, align 8, !tbaa !38
  %27 = load ptr, ptr %6, align 8, !tbaa !33
  %28 = getelementptr inbounds nuw %struct.hdcd_state, ptr %27, i32 0, i32 11
  %29 = load i32, ptr %28, align 8, !tbaa !39
  call void (ptr, i32, ptr, ...) @av_log(ptr noundef %19, i32 noundef 40, ptr noundef @.str.56, i32 noundef %20, i32 noundef %23, i32 noundef %26, i32 noundef %29)
  %30 = load ptr, ptr %2, align 8, !tbaa !4
  %31 = load i32, ptr %4, align 4, !tbaa !32
  %32 = load ptr, ptr %6, align 8, !tbaa !33
  %33 = getelementptr inbounds nuw %struct.hdcd_state, ptr %32, i32 0, i32 13
  %34 = load i32, ptr %33, align 8, !tbaa !40
  %35 = load ptr, ptr %6, align 8, !tbaa !33
  %36 = getelementptr inbounds nuw %struct.hdcd_state, ptr %35, i32 0, i32 14
  %37 = load i32, ptr %36, align 4, !tbaa !41
  %38 = load ptr, ptr %6, align 8, !tbaa !33
  %39 = getelementptr inbounds nuw %struct.hdcd_state, ptr %38, i32 0, i32 8
  %40 = load i32, ptr %39, align 4, !tbaa !42
  %41 = load ptr, ptr %6, align 8, !tbaa !33
  %42 = getelementptr inbounds nuw %struct.hdcd_state, ptr %41, i32 0, i32 10
  %43 = load i32, ptr %42, align 4, !tbaa !43
  %44 = load ptr, ptr %6, align 8, !tbaa !33
  %45 = getelementptr inbounds nuw %struct.hdcd_state, ptr %44, i32 0, i32 12
  %46 = load i32, ptr %45, align 4, !tbaa !44
  %47 = load ptr, ptr %6, align 8, !tbaa !33
  %48 = getelementptr inbounds nuw %struct.hdcd_state, ptr %47, i32 0, i32 17
  %49 = load i32, ptr %48, align 4, !tbaa !45
  call void (ptr, i32, ptr, ...) @av_log(ptr noundef %30, i32 noundef 40, ptr noundef @.str.57, i32 noundef %31, i32 noundef %34, i32 noundef %37, i32 noundef %40, i32 noundef %43, i32 noundef %46, i32 noundef %49)
  store i32 0, ptr %5, align 4, !tbaa !32
  br label %50

50:                                               ; preds = %81, %13
  %51 = load i32, ptr %5, align 4, !tbaa !32
  %52 = load ptr, ptr %6, align 8, !tbaa !33
  %53 = getelementptr inbounds nuw %struct.hdcd_state, ptr %52, i32 0, i32 16
  %54 = load i32, ptr %53, align 8, !tbaa !46
  %55 = icmp sle i32 %51, %54
  br i1 %55, label %56, label %84

56:                                               ; preds = %50
  %57 = load ptr, ptr %2, align 8, !tbaa !4
  %58 = load i32, ptr %4, align 4, !tbaa !32
  %59 = load i32, ptr %5, align 4, !tbaa !32
  %60 = icmp ne i32 %59, 0
  br i1 %60, label %61, label %72

61:                                               ; preds = %56
  %62 = load i32, ptr %5, align 4, !tbaa !32
  %63 = ashr i32 %62, 1
  %64 = sitofp i32 %63 to float
  %65 = fneg nsz float %64
  %66 = fpext nsz float %65 to double
  %67 = load i32, ptr %5, align 4, !tbaa !32
  %68 = and i32 %67, 1
  %69 = icmp ne i32 %68, 0
  %70 = select nsz i1 %69, double 5.000000e-01, double 0.000000e+00
  %71 = fsub nsz double %66, %70
  br label %73

72:                                               ; preds = %56
  br label %73

73:                                               ; preds = %72, %61
  %74 = phi nsz double [ %71, %61 ], [ 0.000000e+00, %72 ]
  %75 = load ptr, ptr %6, align 8, !tbaa !33
  %76 = getelementptr inbounds nuw %struct.hdcd_state, ptr %75, i32 0, i32 15
  %77 = load i32, ptr %5, align 4, !tbaa !32
  %78 = sext i32 %77 to i64
  %79 = getelementptr inbounds [16 x i32], ptr %76, i64 0, i64 %78
  %80 = load i32, ptr %79, align 4, !tbaa !32
  call void (ptr, i32, ptr, ...) @av_log(ptr noundef %57, i32 noundef 40, ptr noundef @.str.58, i32 noundef %58, double noundef %74, i32 noundef %80)
  br label %81

81:                                               ; preds = %73
  %82 = load i32, ptr %5, align 4, !tbaa !32
  %83 = add nsw i32 %82, 1
  store i32 %83, ptr %5, align 4, !tbaa !32
  br label %50, !llvm.loop !47

84:                                               ; preds = %50
  call void @llvm.lifetime.end.p0(i64 8, ptr %6) #7
  br label %85

85:                                               ; preds = %84
  %86 = load i32, ptr %4, align 4, !tbaa !32
  %87 = add nsw i32 %86, 1
  store i32 %87, ptr %4, align 4, !tbaa !32
  br label %10, !llvm.loop !49

88:                                               ; preds = %10
  %89 = load ptr, ptr %2, align 8, !tbaa !4
  %90 = load ptr, ptr %3, align 8, !tbaa !22
  %91 = getelementptr inbounds nuw %struct.HDCDContext, ptr %90, i32 0, i32 12
  %92 = getelementptr inbounds nuw %struct.hdcd_detection_data, ptr %91, i32 0, i32 1
  %93 = load i32, ptr %92, align 4, !tbaa !50
  %94 = zext i32 %93 to i64
  %95 = getelementptr inbounds nuw [4 x ptr], ptr @pf_str, i64 0, i64 %94
  %96 = load ptr, ptr %95, align 8, !tbaa !51
  %97 = load ptr, ptr %3, align 8, !tbaa !22
  %98 = getelementptr inbounds nuw %struct.HDCDContext, ptr %97, i32 0, i32 12
  %99 = getelementptr inbounds nuw %struct.hdcd_detection_data, ptr %98, i32 0, i32 2
  %100 = load i32, ptr %99, align 8, !tbaa !52
  call void (ptr, i32, ptr, ...) @av_log(ptr noundef %89, i32 noundef 40, ptr noundef @.str.59, ptr noundef %96, i32 noundef %100)
  %101 = load ptr, ptr %3, align 8, !tbaa !22
  %102 = getelementptr inbounds nuw %struct.HDCDContext, ptr %101, i32 0, i32 12
  %103 = getelementptr inbounds nuw %struct.hdcd_detection_data, ptr %102, i32 0, i32 0
  %104 = load i32, ptr %103, align 8, !tbaa !53
  %105 = icmp ne i32 %104, 0
  br i1 %105, label %106, label %141

106:                                              ; preds = %88
  %107 = load ptr, ptr %2, align 8, !tbaa !4
  %108 = load ptr, ptr %3, align 8, !tbaa !22
  %109 = getelementptr inbounds nuw %struct.HDCDContext, ptr %108, i32 0, i32 12
  %110 = getelementptr inbounds nuw %struct.hdcd_detection_data, ptr %109, i32 0, i32 4
  %111 = load i32, ptr %110, align 8, !tbaa !54
  %112 = zext i32 %111 to i64
  %113 = getelementptr inbounds nuw [3 x ptr], ptr @pe_str, i64 0, i64 %112
  %114 = load ptr, ptr %113, align 8, !tbaa !51
  %115 = load ptr, ptr %3, align 8, !tbaa !22
  %116 = getelementptr inbounds nuw %struct.HDCDContext, ptr %115, i32 0, i32 12
  %117 = getelementptr inbounds nuw %struct.hdcd_detection_data, ptr %116, i32 0, i32 6
  %118 = load float, ptr %117, align 8, !tbaa !55
  %119 = fpext nsz float %118 to double
  %120 = load ptr, ptr %3, align 8, !tbaa !22
  %121 = getelementptr inbounds nuw %struct.HDCDContext, ptr %120, i32 0, i32 12
  %122 = getelementptr inbounds nuw %struct.hdcd_detection_data, ptr %121, i32 0, i32 5
  %123 = load i32, ptr %122, align 4, !tbaa !56
  %124 = icmp ne i32 %123, 0
  %125 = select i1 %124, ptr @.str.61, ptr @.str.62
  %126 = load ptr, ptr %3, align 8, !tbaa !22
  %127 = getelementptr inbounds nuw %struct.HDCDContext, ptr %126, i32 0, i32 12
  %128 = getelementptr inbounds nuw %struct.hdcd_detection_data, ptr %127, i32 0, i32 3
  %129 = load i32, ptr %128, align 4, !tbaa !57
  %130 = load ptr, ptr %3, align 8, !tbaa !22
  %131 = getelementptr inbounds nuw %struct.HDCDContext, ptr %130, i32 0, i32 12
  %132 = getelementptr inbounds nuw %struct.hdcd_detection_data, ptr %131, i32 0, i32 3
  %133 = load i32, ptr %132, align 4, !tbaa !57
  %134 = icmp ne i32 %133, 0
  %135 = select i1 %134, ptr @.str.63, ptr @.str.64
  %136 = load ptr, ptr %3, align 8, !tbaa !22
  %137 = getelementptr inbounds nuw %struct.HDCDContext, ptr %136, i32 0, i32 8
  %138 = load i32, ptr %137, align 8, !tbaa !29
  %139 = icmp ne i32 %138, 0
  %140 = select i1 %139, ptr @.str.65, ptr @.str.64
  call void (ptr, i32, ptr, ...) @av_log(ptr noundef %107, i32 noundef 32, ptr noundef @.str.60, ptr noundef %114, double noundef %119, ptr noundef %125, i32 noundef %129, ptr noundef %135, ptr noundef %140)
  br label %148

141:                                              ; preds = %88
  %142 = load ptr, ptr %2, align 8, !tbaa !4
  %143 = load ptr, ptr %3, align 8, !tbaa !22
  %144 = getelementptr inbounds nuw %struct.HDCDContext, ptr %143, i32 0, i32 8
  %145 = load i32, ptr %144, align 8, !tbaa !29
  %146 = icmp ne i32 %145, 0
  %147 = select i1 %146, ptr @.str.65, ptr @.str.64
  call void (ptr, i32, ptr, ...) @av_log(ptr noundef %142, i32 noundef 32, ptr noundef @.str.66, ptr noundef %147)
  br label %148

148:                                              ; preds = %141, %106
  call void @llvm.lifetime.end.p0(i64 4, ptr %5) #7
  call void @llvm.lifetime.end.p0(i64 4, ptr %4) #7
  call void @llvm.lifetime.end.p0(i64 8, ptr %3) #7
  ret void
}