; Function Attrs: cold nounwind optsize uwtable
define internal void @uninit(ptr noundef %0) #0 {
  %2 = getelementptr inbounds nuw i8, ptr %0, i64 72
  %3 = load ptr, ptr %2, align 8, !tbaa !4
  %4 = getelementptr inbounds nuw i8, ptr %3, i64 8
  br label %5

5:                                                ; preds = %1, %._crit_edge
  %6 = phi i1 [ true, %1 ], [ false, %._crit_edge ]
  %indvars.iv52 = phi i64 [ 0, %1 ], [ 1, %._crit_edge ]
  %7 = getelementptr inbounds nuw [2 x %struct.hdcd_state], ptr %4, i64 0, i64 %indvars.iv52
  %8 = getelementptr inbounds nuw i8, ptr %7, i64 24
  %9 = load i32, ptr %8, align 8, !tbaa !29
  %10 = getelementptr inbounds nuw i8, ptr %7, i64 32
  %11 = load i32, ptr %10, align 8, !tbaa !32
  %12 = getelementptr inbounds nuw i8, ptr %7, i64 40
  %13 = load i32, ptr %12, align 8, !tbaa !33
  %14 = trunc nuw nsw i64 %indvars.iv52 to i32
  tail call void (ptr, i32, ptr, ...) @av_log(ptr noundef %0, i32 noundef 40, ptr noundef nonnull @.str.56, i32 noundef %14, i32 noundef %9, i32 noundef %11, i32 noundef %13) #9
  %15 = getelementptr inbounds nuw i8, ptr %7, i64 48
  %16 = load i32, ptr %15, align 8, !tbaa !34
  %17 = getelementptr inbounds nuw i8, ptr %7, i64 52
  %18 = load i32, ptr %17, align 4, !tbaa !35
  %19 = getelementptr inbounds nuw i8, ptr %7, i64 28
  %20 = load i32, ptr %19, align 4, !tbaa !36
  %21 = getelementptr inbounds nuw i8, ptr %7, i64 36
  %22 = load i32, ptr %21, align 4, !tbaa !37
  %23 = getelementptr inbounds nuw i8, ptr %7, i64 44
  %24 = load i32, ptr %23, align 4, !tbaa !38
  %25 = getelementptr inbounds nuw i8, ptr %7, i64 124
  %26 = load i32, ptr %25, align 4, !tbaa !39
  tail call void (ptr, i32, ptr, ...) @av_log(ptr noundef %0, i32 noundef 40, ptr noundef nonnull @.str.57, i32 noundef %14, i32 noundef %16, i32 noundef %18, i32 noundef %20, i32 noundef %22, i32 noundef %24, i32 noundef %26) #9
  %27 = getelementptr inbounds nuw i8, ptr %7, i64 120
  %28 = load i32, ptr %27, align 8, !tbaa !40
  %.not4548 = icmp slt i32 %28, 0
  br i1 %.not4548, label %._crit_edge, label %.lr.ph

.lr.ph:                                           ; preds = %5
  %29 = getelementptr inbounds nuw i8, ptr %7, i64 56
  br label %30

30:                                               ; preds = %.lr.ph, %40
  %indvars.iv = phi i64 [ 0, %.lr.ph ], [ %indvars.iv.next, %40 ]
  %.not46 = icmp eq i64 %indvars.iv, 0
  br i1 %.not46, label %40, label %31

31:                                               ; preds = %30
  %32 = trunc nuw nsw i64 %indvars.iv to i32
  %33 = lshr i32 %32, 1
  %34 = uitofp nneg i32 %33 to float
  %35 = fneg nsz float %34
  %36 = fpext nsz float %35 to double
  %37 = and i32 %32, 1
  %.not47 = icmp eq i32 %37, 0
  %38 = select nsz i1 %.not47, double 0.000000e+00, double 5.000000e-01
  %39 = fsub nsz double %36, %38
  br label %40

40:                                               ; preds = %30, %31
  %41 = phi nsz double [ %39, %31 ], [ 0.000000e+00, %30 ]
  %42 = getelementptr inbounds nuw [16 x i32], ptr %29, i64 0, i64 %indvars.iv
  %43 = load i32, ptr %42, align 4, !tbaa !41
  tail call void (ptr, i32, ptr, ...) @av_log(ptr noundef %0, i32 noundef 40, ptr noundef nonnull @.str.58, i32 noundef %14, double noundef %41, i32 noundef %43) #9
  %indvars.iv.next = add nuw nsw i64 %indvars.iv, 1
  %44 = load i32, ptr %27, align 8, !tbaa !40
  %45 = sext i32 %44 to i64
  %.not45.not = icmp slt i64 %indvars.iv, %45
  br i1 %.not45.not, label %30, label %._crit_edge, !llvm.loop !42

._crit_edge:                                      ; preds = %40, %5
  br i1 %6, label %5, label %46, !llvm.loop !44

46:                                               ; preds = %._crit_edge
  %47 = getelementptr inbounds nuw i8, ptr %3, i64 328
  %48 = getelementptr inbounds nuw i8, ptr %3, i64 332
  %49 = load i32, ptr %48, align 4, !tbaa !45
  %50 = zext i32 %49 to i64
  %51 = getelementptr inbounds nuw [4 x ptr], ptr @pf_str, i64 0, i64 %50
  %52 = load ptr, ptr %51, align 8, !tbaa !46
  %53 = getelementptr inbounds nuw i8, ptr %3, i64 336
  %54 = load i32, ptr %53, align 8, !tbaa !47
  tail call void (ptr, i32, ptr, ...) @av_log(ptr noundef %0, i32 noundef 40, ptr noundef nonnull @.str.59, ptr noundef %52, i32 noundef %54) #9
  %55 = load i32, ptr %47, align 8, !tbaa !48
  %.not = icmp eq i32 %55, 0
  br i1 %.not, label %74, label %56

56:                                               ; preds = %46
  %57 = getelementptr inbounds nuw i8, ptr %3, i64 344
  %58 = load i32, ptr %57, align 8, !tbaa !49
  %59 = zext i32 %58 to i64
  %60 = getelementptr inbounds nuw [3 x ptr], ptr @pe_str, i64 0, i64 %59
  %61 = load ptr, ptr %60, align 8, !tbaa !46
  %62 = getelementptr inbounds nuw i8, ptr %3, i64 352
  %63 = load float, ptr %62, align 8, !tbaa !50
  %64 = fpext nsz float %63 to double
  %65 = getelementptr inbounds nuw i8, ptr %3, i64 348
  %66 = load i32, ptr %65, align 4, !tbaa !51
  %.not42 = icmp eq i32 %66, 0
  %67 = select i1 %.not42, ptr @.str.62, ptr @.str.61
  %68 = getelementptr inbounds nuw i8, ptr %3, i64 340
  %69 = load i32, ptr %68, align 4, !tbaa !52
  %.not43 = icmp eq i32 %69, 0
  %70 = select i1 %.not43, ptr @.str.64, ptr @.str.63
  %71 = getelementptr inbounds nuw i8, ptr %3, i64 304
  %72 = load i32, ptr %71, align 8, !tbaa !26
  %.not44 = icmp eq i32 %72, 0
  %73 = select i1 %.not44, ptr @.str.64, ptr @.str.65
  tail call void (ptr, i32, ptr, ...) @av_log(ptr noundef %0, i32 noundef 32, ptr noundef nonnull @.str.60, ptr noundef %61, double noundef %64, ptr noundef nonnull %67, i32 noundef %69, ptr noundef nonnull %70, ptr noundef nonnull %73) #9
  br label %78

74:                                               ; preds = %46
  %75 = getelementptr inbounds nuw i8, ptr %3, i64 304
  %76 = load i32, ptr %75, align 8, !tbaa !26
  %.not41 = icmp eq i32 %76, 0
  %77 = select i1 %.not41, ptr @.str.64, ptr @.str.65
  tail call void (ptr, i32, ptr, ...) @av_log(ptr noundef %0, i32 noundef 32, ptr noundef nonnull @.str.66, ptr noundef nonnull %77) #9
  br label %78

78:                                               ; preds = %74, %56
  ret void
}